; Function Attrs: mustprogress uwtable
define dso_local noundef i32 @_ZN2EA8UnitTest15TestApplication8ShutdownEv(ptr nocapture noundef nonnull readonly align 8 dereferenceable(176) %this) unnamed_addr #0 align 2 {
entry:
  %mpShutdownFunction = getelementptr inbounds i8, ptr %this, i64 168
  %0 = load ptr, ptr %mpShutdownFunction, align 8
  %tobool.not = icmp eq ptr %0, null
  br i1 %tobool.not, label %if.end4, label %if.then

if.then:                                          ; preds = %entry
  %call = tail call noundef i32 %0()
  %cmp = icmp slt i32 %call, 0
  br i1 %cmp, label %return, label %if.end4

if.end4:                                          ; preds = %if.then, %entry
  br label %return

return:                                           ; preds = %if.then, %if.end4
  %retval.0 = phi i32 [ 0, %if.end4 ], [ 1, %if.then ]
  ret i32 %retval.0
}